; Function Attrs: mustprogress uwtable
define noundef zeroext i1 @_Z25ultag_isVariantSubtags_77PKci(ptr noundef %0, i32 noundef %1) local_unnamed_addr #1 {
  %3 = icmp slt i32 %1, 0
  br i1 %3, label %4, label %7

4:                                                ; preds = %2
  %5 = tail call i64 @strlen(ptr noundef nonnull dereferenceable(1) %0) #20
  %6 = trunc i64 %5 to i32
  br label %7

7:                                                ; preds = %4, %2
  %.021.i = phi i32 [ %6, %4 ], [ %1, %2 ]
  %8 = ptrtoint ptr %0 to i64
  %9 = sext i32 %.021.i to i64
  %10 = icmp sgt i32 %.021.i, 0
  br i1 %10, label %.lr.ph.i, label %_ZN12_GLOBAL__N_112_isSepListOfEPFbPKciES1_i.exit

.lr.ph.i:                                         ; preds = %7, %.lr.ph.i.backedge
  %11 = phi i64 [ %.be, %.lr.ph.i.backedge ], [ %8, %7 ]
  %.027.i = phi ptr [ %.027.i.be, %.lr.ph.i.backedge ], [ null, %7 ]
  %.02026.i = phi ptr [ %.02026.i.be, %.lr.ph.i.backedge ], [ %0, %7 ]
  %12 = load i8, ptr %.02026.i, align 1, !tbaa !15
  %13 = icmp eq i8 %12, 45
  %14 = icmp eq ptr %.027.i, null
  br i1 %13, label %15, label %25

15:                                               ; preds = %.lr.ph.i
  br i1 %14, label %_ZN12_GLOBAL__N_112_isSepListOfEPFbPKciES1_i.exit, label %16

16:                                               ; preds = %15
  %17 = ptrtoint ptr %.027.i to i64
  %18 = sub i64 %11, %17
  %19 = trunc i64 %18 to i32
  %20 = tail call fastcc noundef zeroext i1 @_ZN12_GLOBAL__N_116_isVariantSubtagEPKci(ptr noundef nonnull %.027.i, i32 noundef %19)
  %21 = getelementptr inbounds nuw i8, ptr %.02026.i, i64 1
  %22 = ptrtoint ptr %21 to i64
  %23 = sub i64 %22, %8
  %24 = icmp slt i64 %23, %9
  %or.cond = select i1 %20, i1 %24, i1 false
  br i1 %or.cond, label %.lr.ph.i.backedge, label %_ZN12_GLOBAL__N_112_isSepListOfEPFbPKciES1_i.exit

25:                                               ; preds = %.lr.ph.i
  %spec.select.i = select i1 %14, ptr %.02026.i, ptr %.027.i
  %26 = getelementptr inbounds nuw i8, ptr %.02026.i, i64 1
  %27 = ptrtoint ptr %26 to i64
  %28 = sub i64 %27, %8
  %29 = icmp slt i64 %28, %9
  br i1 %29, label %.lr.ph.i.backedge, label %._crit_edge.i

.lr.ph.i.backedge:                                ; preds = %25, %16
  %.be = phi i64 [ %27, %25 ], [ %22, %16 ]
  %.027.i.be = phi ptr [ %spec.select.i, %25 ], [ null, %16 ]
  %.02026.i.be = phi ptr [ %26, %25 ], [ %21, %16 ]
  br label %.lr.ph.i, !llvm.loop !19

._crit_edge.i:                                    ; preds = %25
  %30 = ptrtoint ptr %spec.select.i to i64
  %31 = sub i64 %27, %30
  %32 = trunc i64 %31 to i32
  %33 = tail call fastcc noundef zeroext i1 @_ZN12_GLOBAL__N_116_isVariantSubtagEPKci(ptr noundef nonnull %spec.select.i, i32 noundef %32)
  br label %_ZN12_GLOBAL__N_112_isSepListOfEPFbPKciES1_i.exit

_ZN12_GLOBAL__N_112_isSepListOfEPFbPKciES1_i.exit: ; preds = %15, %16, %7, %._crit_edge.i
  %.022.i = phi i1 [ %33, %._crit_edge.i ], [ false, %7 ], [ false, %16 ], [ false, %15 ]
  ret i1 %.022.i
}